; Function Attrs: nounwind uwtable
define ptr @l_Lean_Server_Completion_findCompletionInfosAt_go___lambda__2(ptr noundef %0, ptr noundef %1, ptr noundef %2, ptr noundef %3, ptr noundef readnone captures(none) %4) local_unnamed_addr #0 {
  tail call void @lean_inc_heartbeat() #4
  %6 = tail call noalias ptr @mi_malloc_small(i64 noundef 32) #4
  %7 = icmp eq ptr %6, null
  br i1 %7, label %8, label %lean_alloc_ctor.exit

8:                                                ; preds = %5
  tail call void @lean_internal_panic_out_of_memory() #5
  unreachable

lean_alloc_ctor.exit:                             ; preds = %5
  %9 = getelementptr inbounds nuw i8, ptr %6, i64 4
  store i32 1, ptr %6, align 4, !tbaa !8
  store i32 196640, ptr %9, align 4
  %10 = getelementptr inbounds nuw i8, ptr %6, i64 8
  store ptr %0, ptr %10, align 8, !tbaa !4
  %11 = getelementptr inbounds nuw i8, ptr %6, i64 16
  store ptr %1, ptr %11, align 8, !tbaa !4
  %12 = getelementptr inbounds nuw i8, ptr %6, i64 24
  store ptr %2, ptr %12, align 8, !tbaa !4
  %13 = tail call ptr @lean_array_push(ptr noundef %3, ptr noundef nonnull %6) #4
  ret ptr %13
}